; ModuleID = 'source-C-CXX/51/4526.cpp'
source_filename = "source-C-CXX/51/4526.cpp"
target datalayout = "e-m:e-p270:32:32-p271:32:32-p272:64:64-i64:64-f80:128-n8:16:32:64-S128"
target triple = "x86_64-pc-linux-gnu"

%"class.std::ios_base::Init" = type { i8 }
%"class.std::basic_istream" = type { i32 (...)**, i64, %"class.std::basic_ios" }
%"class.std::basic_ios" = type { %"class.std::ios_base", %"class.std::basic_ostream"*, i8, i8, %"class.std::basic_streambuf"*, %"class.std::ctype"*, %"class.std::num_put"*, %"class.std::num_get"* }
%"class.std::ios_base" = type { i32 (...)**, i64, i64, i32, i32, i32, %"struct.std::ios_base::_Callback_list"*, %"struct.std::ios_base::_Words", [8 x %"struct.std::ios_base::_Words"], i32, %"struct.std::ios_base::_Words"*, %"class.std::locale" }
%"struct.std::ios_base::_Callback_list" = type { %"struct.std::ios_base::_Callback_list"*, void (i32, %"class.std::ios_base"*, i32)*, i32, i32 }
%"struct.std::ios_base::_Words" = type { i8*, i64 }
%"class.std::locale" = type { %"class.std::locale::_Impl"* }
%"class.std::locale::_Impl" = type { i32, %"class.std::locale::facet"**, i64, %"class.std::locale::facet"**, i8** }
%"class.std::locale::facet" = type <{ i32 (...)**, i32, [4 x i8] }>
%"class.std::basic_ostream" = type { i32 (...)**, %"class.std::basic_ios" }
%"class.std::basic_streambuf" = type { i32 (...)**, i8*, i8*, i8*, i8*, i8*, i8*, %"class.std::locale" }
%"class.std::ctype" = type <{ %"class.std::locale::facet.base", [4 x i8], %struct.__locale_struct*, i8, [7 x i8], i32*, i32*, i16*, i8, [256 x i8], [256 x i8], i8, [6 x i8] }>
%"class.std::locale::facet.base" = type <{ i32 (...)**, i32 }>
%struct.__locale_struct = type { [13 x %struct.__locale_data*], i16*, i32*, i32*, [13 x i8*] }
%struct.__locale_data = type opaque
%"class.std::num_put" = type { %"class.std::locale::facet.base", [4 x i8] }
%"class.std::num_get" = type { %"class.std::locale::facet.base", [4 x i8] }

@_ZStL8__ioinit = internal global %"class.std::ios_base::Init" zeroinitializer, align 1
@__dso_handle = external hidden global i8
@_ZSt3cin = external global %"class.std::basic_istream", align 8
@_ZSt4cout = external global %"class.std::basic_ostream", align 8
@.str = private unnamed_addr constant [2 x i8] c" \00", align 1
@llvm.global_ctors = appending global [1 x { i32, void ()*, i8* }] [{ i32, void ()*, i8* } { i32 65535, void ()* @_GLOBAL__sub_I_4526.cpp, i8* null }]

declare void @_ZNSt8ios_base4InitC1Ev(%"class.std::ios_base::Init"* nonnull align 1 dereferenceable(1)) unnamed_addr #0

; Function Attrs: nounwind
declare void @_ZNSt8ios_base4InitD1Ev(%"class.std::ios_base::Init"* nonnull align 1 dereferenceable(1)) unnamed_addr #1

; Function Attrs: nofree nounwind
declare i32 @__cxa_atexit(void (i8*)*, i8*, i8*) local_unnamed_addr #2

; Function Attrs: mustprogress norecurse sspstrong uwtable
define dso_local i32 @main() local_unnamed_addr #3 {
  %1 = alloca i32, align 4
  %2 = alloca i32, align 4
  %3 = alloca [100 x i32], align 16
  %4 = ptrtoint [100 x i32]* %3 to i64
  %5 = bitcast i32* %1 to i8*
  call void @llvm.lifetime.start.p0i8(i64 4, i8* nonnull %5) #7
  %6 = bitcast i32* %2 to i8*
  call void @llvm.lifetime.start.p0i8(i64 4, i8* nonnull %6) #7
  %7 = bitcast [100 x i32]* %3 to i8*
  call void @llvm.lifetime.start.p0i8(i64 400, i8* nonnull %7) #7
  %8 = call nonnull align 8 dereferenceable(16) %"class.std::basic_istream"* @_ZNSirsERi(%"class.std::basic_istream"* nonnull align 8 dereferenceable(16) @_ZSt3cin, i32* nonnull align 4 dereferenceable(4) %1)
  %9 = call nonnull align 8 dereferenceable(16) %"class.std::basic_istream"* @_ZNSirsERi(%"class.std::basic_istream"* nonnull align 8 dereferenceable(16) %8, i32* nonnull align 4 dereferenceable(4) %2)
  %10 = load i32, i32* %1, align 4, !tbaa !5
  %11 = icmp sgt i32 %10, 0
  br i1 %11, label %170, label %12

12:                                               ; preds = %170, %0
  %13 = phi i32 [ %10, %0 ], [ %175, %170 ]
  %14 = load i32, i32* %2, align 4, !tbaa !5
  %15 = add i32 %13, -1
  %16 = sext i32 %15 to i64
  %17 = getelementptr inbounds [100 x i32], [100 x i32]* %3, i64 0, i64 %16
  %18 = getelementptr inbounds [100 x i32], [100 x i32]* %3, i64 0, i64 0
  %19 = icmp sgt i32 %14, 0
  br i1 %19, label %20, label %185

20:                                               ; preds = %12
  %21 = icmp sgt i32 %13, 1
  br i1 %21, label %28, label %22

22:                                               ; preds = %20
  %23 = add i32 %14, -1
  %24 = and i32 %14, 7
  %25 = icmp ult i32 %23, 7
  br i1 %25, label %178, label %26

26:                                               ; preds = %22
  %27 = and i32 %14, -8
  br label %187

28:                                               ; preds = %20
  %29 = zext i32 %15 to i64
  %30 = call i64 @llvm.smin.i64(i64 %29, i64 1)
  %31 = sub nsw i64 %29, %30
  %32 = add i32 %13, -2
  %33 = shl nuw nsw i64 %29, 2
  %34 = add i64 %33, %4
  %35 = zext i32 %32 to i64
  %36 = shl nuw nsw i64 %35, 2
  %37 = add i64 %36, %4
  %38 = call i64 @llvm.smin.i64(i64 %29, i64 1)
  %39 = getelementptr [100 x i32], [100 x i32]* %3, i64 0, i64 %38
  %40 = add nuw nsw i64 %29, 1
  %41 = getelementptr [100 x i32], [100 x i32]* %3, i64 0, i64 %40
  %42 = add i32 %13, -2
  %43 = zext i32 %42 to i64
  %44 = add nuw nsw i64 %38, %43
  %45 = sub nsw i64 %44, %29
  %46 = getelementptr [100 x i32], [100 x i32]* %3, i64 0, i64 %45
  %47 = add nuw nsw i64 %43, 1
  %48 = getelementptr [100 x i32], [100 x i32]* %3, i64 0, i64 %47
  %49 = add nuw nsw i64 %29, 1
  %50 = call i64 @llvm.smin.i64(i64 %29, i64 1)
  %51 = sub nuw nsw i64 %49, %50
  %52 = add nuw nsw i64 %29, 1
  %53 = sub nuw nsw i64 %52, %50
  %54 = add nsw i64 %53, -8
  %55 = lshr i64 %54, 3
  %56 = add nuw nsw i64 %55, 1
  %57 = icmp ult i64 %51, 8
  %58 = trunc i64 %31 to i32
  %59 = icmp ult i32 %32, %58
  %60 = icmp ugt i64 %31, 4294967295
  %61 = or i1 %59, %60
  %62 = call { i64, i1 } @llvm.umul.with.overflow.i64(i64 %31, i64 4)
  %63 = extractvalue { i64, i1 } %62, 0
  %64 = extractvalue { i64, i1 } %62, 1
  %65 = icmp ugt i64 %63, %34
  %66 = or i1 %65, %64
  %67 = or i1 %61, %66
  %68 = call { i64, i1 } @llvm.umul.with.overflow.i64(i64 %31, i64 4)
  %69 = extractvalue { i64, i1 } %68, 0
  %70 = extractvalue { i64, i1 } %68, 1
  %71 = icmp ugt i64 %69, %37
  %72 = or i1 %71, %70
  %73 = or i1 %67, %72
  %74 = icmp ult i32* %39, %48
  %75 = icmp ult i32* %46, %41
  %76 = and i1 %74, %75
  %77 = and i64 %51, -8
  %78 = sub nsw i64 %29, %77
  %79 = trunc i64 %77 to i32
  %80 = sub i32 %15, %79
  %81 = and i64 %56, 1
  %82 = icmp ult i64 %54, 8
  %83 = and i64 %56, 4611686018427387902
  %84 = icmp eq i64 %81, 0
  %85 = icmp eq i64 %51, %77
  br label %86

86:                                               ; preds = %28, %167
  %87 = phi i32 [ %168, %167 ], [ 0, %28 ]
  %88 = load i32, i32* %17, align 4, !tbaa !5
  %89 = select i1 %57, i1 true, i1 %73
  %90 = select i1 %89, i1 true, i1 %76
  br i1 %90, label %154, label %91

91:                                               ; preds = %86
  br i1 %82, label %133, label %92

92:                                               ; preds = %91, %92
  %93 = phi i64 [ %130, %92 ], [ 0, %91 ]
  %94 = phi i64 [ %131, %92 ], [ %83, %91 ]
  %95 = sub i64 %29, %93
  %96 = trunc i64 %93 to i32
  %97 = xor i32 %96, -1
  %98 = add i32 %15, %97
  %99 = zext i32 %98 to i64
  %100 = getelementptr inbounds [100 x i32], [100 x i32]* %3, i64 0, i64 %99
  %101 = getelementptr inbounds i32, i32* %100, i64 -3
  %102 = bitcast i32* %101 to <4 x i32>*
  %103 = load <4 x i32>, <4 x i32>* %102, align 4, !tbaa !5, !alias.scope !9
  %104 = getelementptr inbounds i32, i32* %100, i64 -7
  %105 = bitcast i32* %104 to <4 x i32>*
  %106 = load <4 x i32>, <4 x i32>* %105, align 4, !tbaa !5, !alias.scope !9
  %107 = getelementptr inbounds [100 x i32], [100 x i32]* %3, i64 0, i64 %95
  %108 = getelementptr inbounds i32, i32* %107, i64 -3
  %109 = bitcast i32* %108 to <4 x i32>*
  store <4 x i32> %103, <4 x i32>* %109, align 4, !tbaa !5, !alias.scope !12, !noalias !9
  %110 = getelementptr inbounds i32, i32* %107, i64 -7
  %111 = bitcast i32* %110 to <4 x i32>*
  store <4 x i32> %106, <4 x i32>* %111, align 4, !tbaa !5, !alias.scope !12, !noalias !9
  %112 = or i64 %93, 8
  %113 = sub i64 %29, %112
  %114 = trunc i64 %112 to i32
  %115 = xor i32 %114, -1
  %116 = add i32 %15, %115
  %117 = zext i32 %116 to i64
  %118 = getelementptr inbounds [100 x i32], [100 x i32]* %3, i64 0, i64 %117
  %119 = getelementptr inbounds i32, i32* %118, i64 -3
  %120 = bitcast i32* %119 to <4 x i32>*
  %121 = load <4 x i32>, <4 x i32>* %120, align 4, !tbaa !5, !alias.scope !9
  %122 = getelementptr inbounds i32, i32* %118, i64 -7
  %123 = bitcast i32* %122 to <4 x i32>*
  %124 = load <4 x i32>, <4 x i32>* %123, align 4, !tbaa !5, !alias.scope !9
  %125 = getelementptr inbounds [100 x i32], [100 x i32]* %3, i64 0, i64 %113
  %126 = getelementptr inbounds i32, i32* %125, i64 -3
  %127 = bitcast i32* %126 to <4 x i32>*
  store <4 x i32> %121, <4 x i32>* %127, align 4, !tbaa !5, !alias.scope !12, !noalias !9
  %128 = getelementptr inbounds i32, i32* %125, i64 -7
  %129 = bitcast i32* %128 to <4 x i32>*
  store <4 x i32> %124, <4 x i32>* %129, align 4, !tbaa !5, !alias.scope !12, !noalias !9
  %130 = add nuw i64 %93, 16
  %131 = add i64 %94, -2
  %132 = icmp eq i64 %131, 0
  br i1 %132, label %133, label %92, !llvm.loop !14

133:                                              ; preds = %92, %91
  %134 = phi i64 [ 0, %91 ], [ %130, %92 ]
  br i1 %84, label %153, label %135

135:                                              ; preds = %133
  %136 = sub i64 %29, %134
  %137 = trunc i64 %134 to i32
  %138 = xor i32 %137, -1
  %139 = add i32 %15, %138
  %140 = zext i32 %139 to i64
  %141 = getelementptr inbounds [100 x i32], [100 x i32]* %3, i64 0, i64 %140
  %142 = getelementptr inbounds i32, i32* %141, i64 -3
  %143 = bitcast i32* %142 to <4 x i32>*
  %144 = load <4 x i32>, <4 x i32>* %143, align 4, !tbaa !5, !alias.scope !9
  %145 = getelementptr inbounds i32, i32* %141, i64 -7
  %146 = bitcast i32* %145 to <4 x i32>*
  %147 = load <4 x i32>, <4 x i32>* %146, align 4, !tbaa !5, !alias.scope !9
  %148 = getelementptr inbounds [100 x i32], [100 x i32]* %3, i64 0, i64 %136
  %149 = getelementptr inbounds i32, i32* %148, i64 -3
  %150 = bitcast i32* %149 to <4 x i32>*
  store <4 x i32> %144, <4 x i32>* %150, align 4, !tbaa !5, !alias.scope !12, !noalias !9
  %151 = getelementptr inbounds i32, i32* %148, i64 -7
  %152 = bitcast i32* %151 to <4 x i32>*
  store <4 x i32> %147, <4 x i32>* %152, align 4, !tbaa !5, !alias.scope !12, !noalias !9
  br label %153

153:                                              ; preds = %133, %135
  br i1 %85, label %167, label %154

154:                                              ; preds = %86, %153
  %155 = phi i64 [ %29, %86 ], [ %78, %153 ]
  %156 = phi i32 [ %15, %86 ], [ %80, %153 ]
  br label %157

157:                                              ; preds = %154, %157
  %158 = phi i64 [ %166, %157 ], [ %155, %154 ]
  %159 = phi i32 [ %160, %157 ], [ %156, %154 ]
  %160 = add nsw i32 %159, -1
  %161 = zext i32 %160 to i64
  %162 = getelementptr inbounds [100 x i32], [100 x i32]* %3, i64 0, i64 %161
  %163 = load i32, i32* %162, align 4, !tbaa !5
  %164 = getelementptr inbounds [100 x i32], [100 x i32]* %3, i64 0, i64 %158
  store i32 %163, i32* %164, align 4, !tbaa !5
  %165 = icmp sgt i64 %158, 1
  %166 = add nsw i64 %158, -1
  br i1 %165, label %157, label %167, !llvm.loop !17

167:                                              ; preds = %157, %153
  store i32 %88, i32* %18, align 16, !tbaa !5
  %168 = add nuw nsw i32 %87, 1
  %169 = icmp eq i32 %168, %14
  br i1 %169, label %185, label %86, !llvm.loop !18

170:                                              ; preds = %0, %170
  %171 = phi i64 [ %174, %170 ], [ 0, %0 ]
  %172 = getelementptr inbounds [100 x i32], [100 x i32]* %3, i64 0, i64 %171
  %173 = call nonnull align 8 dereferenceable(16) %"class.std::basic_istream"* @_ZNSirsERi(%"class.std::basic_istream"* nonnull align 8 dereferenceable(16) @_ZSt3cin, i32* nonnull align 4 dereferenceable(4) %172)
  %174 = add nuw nsw i64 %171, 1
  %175 = load i32, i32* %1, align 4, !tbaa !5
  %176 = sext i32 %175 to i64
  %177 = icmp slt i64 %174, %176
  br i1 %177, label %170, label %12, !llvm.loop !19

178:                                              ; preds = %187, %22
  %179 = icmp eq i32 %24, 0
  br i1 %179, label %185, label %180

180:                                              ; preds = %178, %180
  %181 = phi i32 [ %183, %180 ], [ %24, %178 ]
  %182 = load i32, i32* %17, align 4, !tbaa !5
  store i32 %182, i32* %18, align 16, !tbaa !5
  %183 = add i32 %181, -1
  %184 = icmp eq i32 %183, 0
  br i1 %184, label %185, label %180, !llvm.loop !20

185:                                              ; preds = %178, %180, %167, %12
  %186 = icmp sgt i32 %13, 1
  br i1 %186, label %204, label %199

187:                                              ; preds = %187, %26
  %188 = phi i32 [ %27, %26 ], [ %197, %187 ]
  %189 = load i32, i32* %17, align 4, !tbaa !5
  store i32 %189, i32* %18, align 16, !tbaa !5
  %190 = load i32, i32* %17, align 4, !tbaa !5
  store i32 %190, i32* %18, align 16, !tbaa !5
  %191 = load i32, i32* %17, align 4, !tbaa !5
  store i32 %191, i32* %18, align 16, !tbaa !5
  %192 = load i32, i32* %17, align 4, !tbaa !5
  store i32 %192, i32* %18, align 16, !tbaa !5
  %193 = load i32, i32* %17, align 4, !tbaa !5
  store i32 %193, i32* %18, align 16, !tbaa !5
  %194 = load i32, i32* %17, align 4, !tbaa !5
  store i32 %194, i32* %18, align 16, !tbaa !5
  %195 = load i32, i32* %17, align 4, !tbaa !5
  store i32 %195, i32* %18, align 16, !tbaa !5
  %196 = load i32, i32* %17, align 4, !tbaa !5
  store i32 %196, i32* %18, align 16, !tbaa !5
  %197 = add i32 %188, -8
  %198 = icmp eq i32 %197, 0
  br i1 %198, label %178, label %187, !llvm.loop !18

199:                                              ; preds = %204, %185
  %200 = phi i64 [ %16, %185 ], [ %213, %204 ]
  %201 = getelementptr inbounds [100 x i32], [100 x i32]* %3, i64 0, i64 %200
  %202 = load i32, i32* %201, align 4, !tbaa !5
  %203 = call nonnull align 8 dereferenceable(8) %"class.std::basic_ostream"* @_ZNSolsEi(%"class.std::basic_ostream"* nonnull align 8 dereferenceable(8) @_ZSt4cout, i32 %202)
  call void @llvm.lifetime.end.p0i8(i64 400, i8* nonnull %7) #7
  call void @llvm.lifetime.end.p0i8(i64 4, i8* nonnull %6) #7
  call void @llvm.lifetime.end.p0i8(i64 4, i8* nonnull %5) #7
  ret i32 0

204:                                              ; preds = %185, %204
  %205 = phi i64 [ %210, %204 ], [ 0, %185 ]
  %206 = getelementptr inbounds [100 x i32], [100 x i32]* %3, i64 0, i64 %205
  %207 = load i32, i32* %206, align 4, !tbaa !5
  %208 = call nonnull align 8 dereferenceable(8) %"class.std::basic_ostream"* @_ZNSolsEi(%"class.std::basic_ostream"* nonnull align 8 dereferenceable(8) @_ZSt4cout, i32 %207)
  %209 = call nonnull align 8 dereferenceable(8) %"class.std::basic_ostream"* @_ZSt16__ostream_insertIcSt11char_traitsIcEERSt13basic_ostreamIT_T0_ES6_PKS3_l(%"class.std::basic_ostream"* nonnull align 8 dereferenceable(8) %208, i8* nonnull getelementptr inbounds ([2 x i8], [2 x i8]* @.str, i64 0, i64 0), i64 1)
  %210 = add nuw nsw i64 %205, 1
  %211 = load i32, i32* %1, align 4, !tbaa !5
  %212 = add nsw i32 %211, -1
  %213 = sext i32 %212 to i64
  %214 = icmp slt i64 %210, %213
  br i1 %214, label %204, label %199, !llvm.loop !22
}

; Function Attrs: argmemonly mustprogress nofree nosync nounwind willreturn
declare void @llvm.lifetime.start.p0i8(i64 immarg, i8* nocapture) #4

declare nonnull align 8 dereferenceable(16) %"class.std::basic_istream"* @_ZNSirsERi(%"class.std::basic_istream"* nonnull align 8 dereferenceable(16), i32* nonnull align 4 dereferenceable(4)) local_unnamed_addr #0

; Function Attrs: argmemonly mustprogress nofree nosync nounwind willreturn
declare void @llvm.lifetime.end.p0i8(i64 immarg, i8* nocapture) #4

declare nonnull align 8 dereferenceable(8) %"class.std::basic_ostream"* @_ZNSolsEi(%"class.std::basic_ostream"* nonnull align 8 dereferenceable(8), i32) local_unnamed_addr #0

declare nonnull align 8 dereferenceable(8) %"class.std::basic_ostream"* @_ZSt16__ostream_insertIcSt11char_traitsIcEERSt13basic_ostreamIT_T0_ES6_PKS3_l(%"class.std::basic_ostream"* nonnull align 8 dereferenceable(8), i8*, i64) local_unnamed_addr #0

; Function Attrs: sspstrong uwtable
define internal void @_GLOBAL__sub_I_4526.cpp() #5 section ".text.startup" {
  tail call void @_ZNSt8ios_base4InitC1Ev(%"class.std::ios_base::Init"* nonnull align 1 dereferenceable(1) @_ZStL8__ioinit)
  %1 = tail call i32 @__cxa_atexit(void (i8*)* bitcast (void (%"class.std::ios_base::Init"*)* @_ZNSt8ios_base4InitD1Ev to void (i8*)*), i8* getelementptr inbounds (%"class.std::ios_base::Init", %"class.std::ios_base::Init"* @_ZStL8__ioinit, i64 0, i32 0), i8* nonnull @__dso_handle) #7
  ret void
}

; Function Attrs: nofree nosync nounwind readnone speculatable willreturn
declare i64 @llvm.smin.i64(i64, i64) #6

; Function Attrs: nofree nosync nounwind readnone speculatable willreturn
declare { i64, i1 } @llvm.umul.with.overflow.i64(i64, i64) #6


!llvm.module.flags = !{!0, !1, !2, !3}
!llvm.ident = !{!4}

!0 = !{i32 1, !"wchar_size", i32 4}
!1 = !{i32 7, !"PIC Level", i32 2}
!2 = !{i32 7, !"PIE Level", i32 2}
!3 = !{i32 7, !"uwtable", i32 1}
!4 = !{!"clang version 13.0.0"}
!5 = !{!6, !6, i64 0}
!6 = !{!"int", !7, i64 0}
!7 = !{!"omnipotent char", !8, i64 0}
!8 = !{!"Simple C++ TBAA"}
!9 = !{!10}
!10 = distinct !{!10, !11}
!11 = distinct !{!11, !"LVerDomain"}
!12 = !{!13}
!13 = distinct !{!13, !11}
!14 = distinct !{!14, !15, !16}
!15 = !{!"llvm.loop.mustprogress"}
!16 = !{!"llvm.loop.isvectorized", i32 1}
!17 = distinct !{!17, !15, !16}
!18 = distinct !{!18, !15}
!19 = distinct !{!19, !15}
!20 = distinct !{!20, !21}
!21 = !{!"llvm.loop.unroll.disable"}
!22 = distinct !{!22, !15}
